; Function Attrs: mustprogress nounwind uwtable
define hidden void @_ZN21ZStatMutatorAllocRate10initializeEv() local_unnamed_addr #0 align 2 {
  %1 = tail call noundef i64 @_ZN2os15elapsed_counterEv() #20
  store i64 %1, ptr @_ZN21ZStatMutatorAllocRate17_last_sample_timeE, align 8
  %2 = tail call noundef ptr @_Z12AllocateHeapm8MEMFLAGSN17AllocFailStrategy13AllocFailEnumE(i64 noundef 40, i8 noundef zeroext 5, i32 noundef 0) #20
  tail call void @llvm.memset.p0.i64(ptr noundef nonnull align 8 dereferenceable(40) %2, i8 0, i64 40, i1 false)
  tail call void @_ZN13PlatformMutexC1Ev(ptr noundef nonnull align 8 dereferenceable(40) %2) #20
  store ptr %2, ptr @_ZN21ZStatMutatorAllocRate10_stat_lockE, align 8
  %3 = load ptr, ptr @_ZN5ZHeap5_heapE, align 8
  %4 = tail call noundef i64 @_ZNK5ZHeap17soft_max_capacityEv(ptr noundef nonnull align 64 dereferenceable(15937) %3) #20
  %5 = lshr i64 %4, 7
  %6 = add nuw nsw i64 %5, 2097151
  %7 = and i64 %6, 288230376149614592
  store volatile i64 %7, ptr @_ZN21ZStatMutatorAllocRate17_sampling_granuleE, align 8
  ret void
}